; Function Attrs: nounwind sspstrong uwtable
define internal i64 @iow_type(i64 noundef %0) #0 {
  %2 = inttoptr i64 %0 to ptr
  %3 = getelementptr inbounds nuw i8, ptr %2, i64 32
  %4 = load ptr, ptr %3, align 8, !tbaa !22
  %5 = load i64, ptr %4, align 8, !tbaa !32
  %6 = trunc i64 %5 to i32
  %7 = and i32 %6, 31
  %8 = tail call fastcc i64 @type2sym(i32 noundef %7)
  ret i64 %8
}